target datalayout = "e-m:e-p270:32:32-p271:32:32-p272:64:64-i64:64-i128:128-f80:128-n8:16:32:64-S128"
target triple = "x86_64-pc-linux-gnu"

%struct.ident_t = type { i32, i32, i32, i32, ptr }

@3 = private unnamed_addr constant %struct.ident_t { i32 0, i32 2, i32 0, i32 22, ptr @0 }, align 8

; Function Attrs: mustprogress nounwind uwtable
define void @_ZNK5faiss17EnumeratedVectors12decode_multiEmPKmPf(ptr noundef nonnull align 8 dereferenceable(20) %0, i64 noundef %1, ptr noundef %2, ptr noundef %3) #4 align 2 {
  %5 = alloca ptr, align 8
  %6 = alloca i64, align 8
  %7 = alloca ptr, align 8
  %8 = alloca ptr, align 8
  %9 = alloca i32, align 4
  %10 = alloca i32, align 4
  %11 = call i32 @__kmpc_global_thread_num(ptr @3)
  store ptr %0, ptr %5, align 8, !tbaa !194
  store i64 %1, ptr %6, align 8, !tbaa !11
  store ptr %2, ptr %7, align 8, !tbaa !57
  store ptr %3, ptr %8, align 8, !tbaa !9
  %12 = load ptr, ptr %5, align 8
  %13 = load i64, ptr %6, align 8, !tbaa !11
  %14 = icmp ugt i64 %13, 1000
  br i1 %14, label %15, label %16

15:                                               ; preds = %4
  call void (ptr, i32, ptr, ...) @__kmpc_fork_call(ptr @3, i32 4, ptr @_ZNK5faiss17EnumeratedVectors12decode_multiEmPKmPf.omp_outlined, ptr %6, ptr %12, ptr %7, ptr %8)
  br label %17

16:                                               ; preds = %4
  call void @__kmpc_serialized_parallel(ptr @3, i32 %11)
  store i32 %11, ptr %9, align 4, !tbaa !13
  store i32 0, ptr %10, align 4
  call void @_ZNK5faiss17EnumeratedVectors12decode_multiEmPKmPf.omp_outlined(ptr %9, ptr %10, ptr %6, ptr %12, ptr %7, ptr %8) #3
  call void @__kmpc_end_serialized_parallel(ptr @3, i32 %11)
  br label %17

17:                                               ; preds = %16, %15
  ret void
}